target datalayout = "e-m:e-p270:32:32-p271:32:32-p272:64:64-i64:64-i128:128-f80:128-n8:16:32:64-S128"
target triple = "x86_64-pc-linux-gnu"

%"struct.igl::triangle::SCAFData" = type { double, i32, i32, i32, double, double, i64, i64, i64, i64, i64, i64, %"class.Eigen::Matrix", %"class.Eigen::Matrix.3", %"class.Eigen::Matrix", %"class.Eigen::Matrix.3", %"class.Eigen::Matrix.3", %"class.Eigen::Matrix.12", %"class.Eigen::Matrix.12", %"class.Eigen::Matrix.12", double, double, %"class.Eigen::Matrix.21", %"class.Eigen::Matrix.21", %"class.std::map", double, %"class.Eigen::Matrix.21", %"class.Eigen::Matrix", %"class.std::vector", %"class.std::vector", i8, %"class.Eigen::SparseMatrix", %"class.Eigen::SparseMatrix", %"class.Eigen::SparseMatrix", %"class.Eigen::SparseMatrix", %"class.Eigen::SparseMatrix", %"class.Eigen::SparseMatrix", %"class.Eigen::Matrix", %"class.Eigen::Matrix", %"class.Eigen::Matrix", %"class.Eigen::Matrix", %"class.Eigen::Matrix", %"class.Eigen::Matrix" }
%"class.Eigen::Matrix.3" = type { %"class.Eigen::PlainObjectBase.4" }
%"class.Eigen::PlainObjectBase.4" = type { %"class.Eigen::DenseStorage.11" }
%"class.Eigen::DenseStorage.11" = type { ptr, i64, i64 }
%"class.Eigen::Matrix.12" = type { %"class.Eigen::PlainObjectBase.13" }
%"class.Eigen::PlainObjectBase.13" = type { %"class.Eigen::DenseStorage.20" }
%"class.Eigen::DenseStorage.20" = type { ptr, i64 }
%"class.std::map" = type { %"class.std::_Rb_tree" }
%"class.std::_Rb_tree" = type { %"struct.std::_Rb_tree<int, std::pair<const int, Eigen::Matrix<double, 1, -1>>, std::_Select1st<std::pair<const int, Eigen::Matrix<double, 1, -1>>>, std::less<int>>::_Rb_tree_impl" }
%"struct.std::_Rb_tree<int, std::pair<const int, Eigen::Matrix<double, 1, -1>>, std::_Select1st<std::pair<const int, Eigen::Matrix<double, 1, -1>>>, std::less<int>>::_Rb_tree_impl" = type { [8 x i8], %"struct.std::_Rb_tree_header" }
%"struct.std::_Rb_tree_header" = type { %"struct.std::_Rb_tree_node_base", i64 }
%"struct.std::_Rb_tree_node_base" = type { i32, ptr, ptr, ptr }
%"class.Eigen::Matrix.21" = type { %"class.Eigen::PlainObjectBase.22" }
%"class.Eigen::PlainObjectBase.22" = type { %"class.Eigen::DenseStorage.29" }
%"class.Eigen::DenseStorage.29" = type { ptr, i64 }
%"class.std::vector" = type { %"struct.std::_Vector_base" }
%"struct.std::_Vector_base" = type { %"struct.std::_Vector_base<int, std::allocator<int>>::_Vector_impl" }
%"struct.std::_Vector_base<int, std::allocator<int>>::_Vector_impl" = type { %"struct.std::_Vector_base<int, std::allocator<int>>::_Vector_impl_data" }
%"struct.std::_Vector_base<int, std::allocator<int>>::_Vector_impl_data" = type { ptr, ptr, ptr }
%"class.Eigen::SparseMatrix" = type { %"class.Eigen::SparseCompressedBase", i64, i64, ptr, ptr, %"class.Eigen::internal::CompressedStorage" }
%"class.Eigen::SparseCompressedBase" = type { %"class.Eigen::SparseMatrixBase" }
%"class.Eigen::SparseMatrixBase" = type { i8 }
%"class.Eigen::internal::CompressedStorage" = type { ptr, ptr, i64, i64 }
%"class.Eigen::Matrix" = type { %"class.Eigen::PlainObjectBase" }
%"class.Eigen::PlainObjectBase" = type { %"class.Eigen::DenseStorage" }
%"class.Eigen::DenseStorage" = type { ptr, i64, i64 }
%class.anon.507 = type { ptr }

; Function Attrs: mustprogress nounwind uwtable
define linkonce_odr dso_local noundef i64 @_ZNK5Eigen12DenseStorageIdLin1ELin1ELin1ELi0EE4rowsEv(ptr noundef nonnull align 8 dereferenceable(24) %0) #1 comdat align 2 {
  %2 = alloca ptr, align 8
  store ptr %0, ptr %2, align 8, !tbaa !449
  %3 = load ptr, ptr %2, align 8
  %4 = getelementptr inbounds nuw %"class.Eigen::DenseStorage", ptr %3, i32 0, i32 1
  %5 = load i64, ptr %4, align 8, !tbaa !451
  ret i64 %5
}

; Function Attrs: mustprogress uwtable
define dso_local noundef double @_ZN3igl8triangle4scaf29compute_energy_from_jacobiansERKN5Eigen6MatrixIdLin1ELin1ELi0ELin1ELin1EEERKNS3_IdLin1ELi1ELi0ELin1ELi1EEENS_17MappingEnergyTypeE(ptr noundef nonnull align 8 dereferenceable(24) %0, ptr noundef nonnull align 8 dereferenceable(16) %1, i32 noundef %2) #3 {
  %4 = alloca ptr, align 8
  %5 = alloca ptr, align 8
  %6 = alloca i32, align 4
  %7 = alloca double, align 8
  store ptr %0, ptr %4, align 8, !tbaa !70
  store ptr %1, ptr %5, align 8, !tbaa !66
  store i32 %2, ptr %6, align 4, !tbaa !289
  call void @llvm.lifetime.start.p0(i64 8, ptr %7) #27
  store double 0.000000e+00, ptr %7, align 8, !tbaa !74
  %8 = load i32, ptr %6, align 4, !tbaa !289
  %9 = icmp eq i32 %8, 2
  br i1 %9, label %10, label %11

10:                                               ; preds = %3
  store double -4.000000e+00, ptr %7, align 8, !tbaa !74
  br label %11

11:                                               ; preds = %10, %3
  %12 = load double, ptr %7, align 8, !tbaa !74
  %13 = load ptr, ptr %4, align 8, !tbaa !70
  %14 = load ptr, ptr %5, align 8, !tbaa !66
  %15 = load i32, ptr %6, align 4, !tbaa !289
  %16 = call noundef double @_ZN3igl29mapping_energy_with_jacobiansERKN5Eigen6MatrixIdLin1ELin1ELi0ELin1ELin1EEERKNS1_IdLin1ELi1ELi0ELin1ELi1EEENS_17MappingEnergyTypeEd(ptr noundef nonnull align 8 dereferenceable(24) %13, ptr noundef nonnull align 8 dereferenceable(16) %14, i32 noundef %15, double noundef 0.000000e+00)
  %17 = fadd double %12, %16
  call void @llvm.lifetime.end.p0(i64 8, ptr %7) #27
  ret double %17
}

; Function Attrs: inlinehint mustprogress nounwind uwtable
define linkonce_odr dso_local noundef i64 @_ZNK5Eigen15PlainObjectBaseINS_6MatrixIdLin1ELin1ELi0ELin1ELin1EEEE4rowsEv(ptr noundef nonnull align 8 dereferenceable(24) %0) #4 comdat align 2 {
  %2 = alloca ptr, align 8
  store ptr %0, ptr %2, align 8, !tbaa !60
  %3 = load ptr, ptr %2, align 8
  %4 = getelementptr inbounds nuw %"class.Eigen::PlainObjectBase", ptr %3, i32 0, i32 0
  %5 = call noundef i64 @_ZNK5Eigen12DenseStorageIdLin1ELin1ELin1ELi0EE4rowsEv(ptr noundef nonnull align 8 dereferenceable(24) %4) #27
  ret i64 %5
}

; Function Attrs: mustprogress uwtable
define dso_local noundef double @_ZN3igl8triangle4scaf14compute_energyERNS0_8SCAFDataERKN5Eigen6MatrixIdLin1ELin1ELi0ELin1ELin1EEEb(ptr noundef nonnull align 8 dereferenceable(1032) %0, ptr noundef nonnull align 8 dereferenceable(24) %1, i1 noundef zeroext %2) #3 {
  %4 = alloca ptr, align 8
  %5 = alloca ptr, align 8
  %6 = alloca i8, align 1
  %7 = alloca double, align 8
  store ptr %0, ptr %4, align 8, !tbaa !15
  store ptr %1, ptr %5, align 8, !tbaa !70
  %8 = zext i1 %2 to i8
  store i8 %8, ptr %6, align 1, !tbaa !98
  %9 = load ptr, ptr %5, align 8, !tbaa !70
  %10 = call noundef i64 @_ZNK5Eigen15PlainObjectBaseINS_6MatrixIdLin1ELin1ELi0ELin1ELin1EEEE4rowsEv(ptr noundef nonnull align 8 dereferenceable(24) %9) #27
  %11 = load ptr, ptr %4, align 8, !tbaa !15
  %12 = getelementptr inbounds nuw %"struct.igl::triangle::SCAFData", ptr %11, i32 0, i32 10
  %13 = load i64, ptr %12, align 8, !tbaa !56
  %14 = icmp ne i64 %10, %13
  br i1 %14, label %15, label %16

15:                                               ; preds = %3
  br label %16

16:                                               ; preds = %15, %3
  %17 = load ptr, ptr %4, align 8, !tbaa !15
  %18 = load ptr, ptr %5, align 8, !tbaa !70
  %19 = load i8, ptr %6, align 1, !tbaa !98, !range !284, !noundef !285
  %20 = trunc i8 %19 to i1
  call void @_ZN3igl8triangle4scaf17compute_jacobiansERNS0_8SCAFDataERKN5Eigen6MatrixIdLin1ELin1ELi0ELin1ELin1EEEb(ptr noundef nonnull align 8 dereferenceable(1032) %17, ptr noundef nonnull align 8 dereferenceable(24) %18, i1 noundef zeroext %20)
  call void @llvm.lifetime.start.p0(i64 8, ptr %7) #27
  %21 = load ptr, ptr %4, align 8, !tbaa !15
  %22 = getelementptr inbounds nuw %"struct.igl::triangle::SCAFData", ptr %21, i32 0, i32 38
  %23 = load ptr, ptr %4, align 8, !tbaa !15
  %24 = getelementptr inbounds nuw %"struct.igl::triangle::SCAFData", ptr %23, i32 0, i32 17
  %25 = load ptr, ptr %4, align 8, !tbaa !15
  %26 = getelementptr inbounds nuw %"struct.igl::triangle::SCAFData", ptr %25, i32 0, i32 2
  %27 = load i32, ptr %26, align 4, !tbaa !310
  %28 = call noundef double @_ZN3igl8triangle4scaf29compute_energy_from_jacobiansERKN5Eigen6MatrixIdLin1ELin1ELi0ELin1ELin1EEERKNS3_IdLin1ELi1ELi0ELin1ELi1EEENS_17MappingEnergyTypeE(ptr noundef nonnull align 8 dereferenceable(24) %22, ptr noundef nonnull align 8 dereferenceable(16) %24, i32 noundef %27)
  store double %28, ptr %7, align 8, !tbaa !74
  %29 = load i8, ptr %6, align 1, !tbaa !98, !range !284, !noundef !285
  %30 = trunc i8 %29 to i1
  br i1 %30, label %31, label %42

31:                                               ; preds = %16
  %32 = load ptr, ptr %4, align 8, !tbaa !15
  %33 = getelementptr inbounds nuw %"struct.igl::triangle::SCAFData", ptr %32, i32 0, i32 40
  %34 = load ptr, ptr %4, align 8, !tbaa !15
  %35 = getelementptr inbounds nuw %"struct.igl::triangle::SCAFData", ptr %34, i32 0, i32 18
  %36 = load ptr, ptr %4, align 8, !tbaa !15
  %37 = getelementptr inbounds nuw %"struct.igl::triangle::SCAFData", ptr %36, i32 0, i32 1
  %38 = load i32, ptr %37, align 8, !tbaa !311
  %39 = call noundef double @_ZN3igl8triangle4scaf29compute_energy_from_jacobiansERKN5Eigen6MatrixIdLin1ELin1ELi0ELin1ELin1EEERKNS3_IdLin1ELi1ELi0ELin1ELi1EEENS_17MappingEnergyTypeE(ptr noundef nonnull align 8 dereferenceable(24) %33, ptr noundef nonnull align 8 dereferenceable(16) %35, i32 noundef %38)
  %40 = load double, ptr %7, align 8, !tbaa !74
  %41 = fadd double %40, %39
  store double %41, ptr %7, align 8, !tbaa !74
  br label %42

42:                                               ; preds = %31, %16
  %43 = load ptr, ptr %4, align 8, !tbaa !15
  %44 = call noundef double @_ZN3igl8triangle4scaf30compute_soft_constraint_energyERKNS0_8SCAFDataE(ptr noundef nonnull align 8 dereferenceable(1032) %43)
  %45 = load double, ptr %7, align 8, !tbaa !74
  %46 = fadd double %45, %44
  store double %46, ptr %7, align 8, !tbaa !74
  %47 = load double, ptr %7, align 8, !tbaa !74
  call void @llvm.lifetime.end.p0(i64 8, ptr %7) #27
  ret double %47
}

; Function Attrs: inlinehint mustprogress uwtable
define internal noundef double @"_ZZN3igl8triangle4scaf17perform_iterationERNS0_8SCAFDataEENK3$_0clERN5Eigen6MatrixIdLin1ELin1ELi0ELin1ELin1EEE"(ptr noundef nonnull align 8 dereferenceable(8) %0, ptr noundef nonnull align 8 dereferenceable(24) %1) #5 align 2 {
  %3 = alloca ptr, align 8
  %4 = alloca ptr, align 8
  store ptr %0, ptr %3, align 8, !tbaa !288
  store ptr %1, ptr %4, align 8, !tbaa !70
  %5 = load ptr, ptr %3, align 8
  %6 = getelementptr inbounds nuw %class.anon.507, ptr %5, i32 0, i32 0
  %7 = load ptr, ptr %6, align 8, !tbaa !3035
  %8 = load ptr, ptr %4, align 8, !tbaa !70
  %9 = call noundef double @_ZN3igl8triangle4scaf14compute_energyERNS0_8SCAFDataERKN5Eigen6MatrixIdLin1ELin1ELi0ELin1ELin1EEEb(ptr noundef nonnull align 8 dereferenceable(1032) %7, ptr noundef nonnull align 8 dereferenceable(24) %8, i1 noundef zeroext true)
  ret double %9
}

; Function Attrs: mustprogress nounwind uwtable
define linkonce_odr dso_local noundef ptr @_ZNKSt9_Any_data9_M_accessEv(ptr noundef nonnull align 8 dereferenceable(16) %0) #1 comdat align 2 {
  %2 = alloca ptr, align 8
  store ptr %0, ptr %2, align 8, !tbaa !3028
  %3 = load ptr, ptr %2, align 8
  %4 = getelementptr inbounds [16 x i8], ptr %3, i64 0, i64 0
  ret ptr %4
}

; Function Attrs: mustprogress uwtable
define internal noundef double @"_ZSt13__invoke_implIdRZN3igl8triangle4scaf17perform_iterationERNS1_8SCAFDataEE3$_0JRN5Eigen6MatrixIdLin1ELin1ELi0ELin1ELin1EEEEET_St14__invoke_otherOT0_DpOT1_"(ptr noundef nonnull align 8 dereferenceable(8) %0, ptr noundef nonnull align 8 dereferenceable(24) %1) #3 {
  %3 = alloca ptr, align 8
  %4 = alloca ptr, align 8
  store ptr %0, ptr %3, align 8, !tbaa !288
  store ptr %1, ptr %4, align 8, !tbaa !70
  %5 = load ptr, ptr %3, align 8, !tbaa !288
  %6 = load ptr, ptr %4, align 8, !tbaa !70
  %7 = call noundef double @"_ZZN3igl8triangle4scaf17perform_iterationERNS0_8SCAFDataEENK3$_0clERN5Eigen6MatrixIdLin1ELin1ELi0ELin1ELin1EEE"(ptr noundef nonnull align 8 dereferenceable(8) %5, ptr noundef nonnull align 8 dereferenceable(24) %6)
  ret double %7
}

; Function Attrs: mustprogress nounwind uwtable
define internal noundef nonnull align 8 dereferenceable(8) ptr @"_ZNKSt9_Any_data9_M_accessIZN3igl8triangle4scaf17perform_iterationERNS2_8SCAFDataEE3$_0EERKT_v"(ptr noundef nonnull align 8 dereferenceable(16) %0) #1 align 2 {
  %2 = alloca ptr, align 8
  store ptr %0, ptr %2, align 8, !tbaa !3028
  %3 = load ptr, ptr %2, align 8
  %4 = call noundef ptr @_ZNKSt9_Any_data9_M_accessEv(ptr noundef nonnull align 8 dereferenceable(16) %3) #27
  ret ptr %4
}

; Function Attrs: mustprogress uwtable
define internal noundef double @"_ZSt10__invoke_rIdRZN3igl8triangle4scaf17perform_iterationERNS1_8SCAFDataEE3$_0JRN5Eigen6MatrixIdLin1ELin1ELi0ELin1ELin1EEEEENSt9enable_ifIX16is_invocable_r_vIT_T0_DpT1_EESC_E4typeEOSD_DpOSE_"(ptr noundef nonnull align 8 dereferenceable(8) %0, ptr noundef nonnull align 8 dereferenceable(24) %1) #3 {
  %3 = alloca ptr, align 8
  %4 = alloca ptr, align 8
  store ptr %0, ptr %3, align 8, !tbaa !288
  store ptr %1, ptr %4, align 8, !tbaa !70
  %5 = load ptr, ptr %3, align 8, !tbaa !288
  %6 = load ptr, ptr %4, align 8, !tbaa !70
  %7 = call noundef double @"_ZSt13__invoke_implIdRZN3igl8triangle4scaf17perform_iterationERNS1_8SCAFDataEE3$_0JRN5Eigen6MatrixIdLin1ELin1ELi0ELin1ELin1EEEEET_St14__invoke_otherOT0_DpOT1_"(ptr noundef nonnull align 8 dereferenceable(8) %5, ptr noundef nonnull align 8 dereferenceable(24) %6)
  ret double %7
}

; Function Attrs: mustprogress nounwind uwtable
define internal noundef ptr @"_ZNSt14_Function_base13_Base_managerIZN3igl8triangle4scaf17perform_iterationERNS2_8SCAFDataEE3$_0E14_M_get_pointerERKSt9_Any_data"(ptr noundef nonnull align 8 dereferenceable(16) %0) #1 align 2 {
  %2 = alloca ptr, align 8
  %3 = alloca ptr, align 8
  store ptr %0, ptr %2, align 8, !tbaa !3028
  call void @llvm.lifetime.start.p0(i64 8, ptr %3) #27
  %4 = load ptr, ptr %2, align 8, !tbaa !3028
  %5 = call noundef nonnull align 8 dereferenceable(8) ptr @"_ZNKSt9_Any_data9_M_accessIZN3igl8triangle4scaf17perform_iterationERNS2_8SCAFDataEE3$_0EERKT_v"(ptr noundef nonnull align 8 dereferenceable(16) %4) #27
  store ptr %5, ptr %3, align 8, !tbaa !288
  %6 = load ptr, ptr %3, align 8, !tbaa !288
  call void @llvm.lifetime.end.p0(i64 8, ptr %3) #27
  ret ptr %6
}

; Function Attrs: mustprogress uwtable
define internal noundef double @"_ZNSt17_Function_handlerIFdRN5Eigen6MatrixIdLin1ELin1ELi0ELin1ELin1EEEEZN3igl8triangle4scaf17perform_iterationERNS6_8SCAFDataEE3$_0E9_M_invokeERKSt9_Any_dataS3_"(ptr noundef nonnull align 8 dereferenceable(16) %0, ptr noundef nonnull align 8 dereferenceable(24) %1) #3 align 2 {
  %3 = alloca ptr, align 8
  %4 = alloca ptr, align 8
  store ptr %0, ptr %3, align 8, !tbaa !3028
  store ptr %1, ptr %4, align 8, !tbaa !70
  %5 = load ptr, ptr %3, align 8, !tbaa !3028
  %6 = call noundef ptr @"_ZNSt14_Function_base13_Base_managerIZN3igl8triangle4scaf17perform_iterationERNS2_8SCAFDataEE3$_0E14_M_get_pointerERKSt9_Any_data"(ptr noundef nonnull align 8 dereferenceable(16) %5) #27
  %7 = load ptr, ptr %4, align 8, !tbaa !70
  %8 = call noundef double @"_ZSt10__invoke_rIdRZN3igl8triangle4scaf17perform_iterationERNS1_8SCAFDataEE3$_0JRN5Eigen6MatrixIdLin1ELin1ELi0ELin1ELin1EEEEENSt9enable_ifIX16is_invocable_r_vIT_T0_DpT1_EESC_E4typeEOSD_DpOSE_"(ptr noundef nonnull align 8 dereferenceable(8) %6, ptr noundef nonnull align 8 dereferenceable(24) %7)
  ret double %8
}