; Function Attrs: mustprogress uwtable
define internal noundef double @"_ZNSt17_Function_handlerIFdRN5Eigen6MatrixIdLin1ELin1ELi0ELin1ELin1EEEEZN3igl8triangle4scaf17perform_iterationERNS6_8SCAFDataEE3$_0E9_M_invokeERKSt9_Any_dataS3_"(ptr noundef nonnull readonly align 8 captures(none) dereferenceable(16) %0, ptr noundef nonnull align 8 dereferenceable(24) %1) #0 align 2 {
  %.val = load ptr, ptr %0, align 8, !tbaa !891
  tail call void @_ZN3igl8triangle4scaf17compute_jacobiansERNS0_8SCAFDataERKN5Eigen6MatrixIdLin1ELin1ELi0ELin1ELin1EEEb(ptr noundef nonnull align 8 dereferenceable(1032) %.val, ptr noundef nonnull align 8 dereferenceable(24) %1, i1 noundef zeroext true)
  %3 = getelementptr inbounds nuw i8, ptr %.val, i64 912
  %4 = getelementptr inbounds nuw i8, ptr %.val, i64 208
  %5 = getelementptr inbounds nuw i8, ptr %.val, i64 12
  %6 = load i32, ptr %5, align 4, !tbaa !351
  %7 = icmp eq i32 %6, 2
  %spec.store.select.i.i.i.i.i = select i1 %7, double -4.000000e+00, double 0.000000e+00
  %8 = tail call noundef double @_ZN3igl29mapping_energy_with_jacobiansERKN5Eigen6MatrixIdLin1ELin1ELi0ELin1ELin1EEERKNS1_IdLin1ELi1ELi0ELin1ELi1EEENS_17MappingEnergyTypeEd(ptr noundef nonnull align 8 dereferenceable(24) %3, ptr noundef nonnull align 8 dereferenceable(16) %4, i32 noundef %6, double noundef 0.000000e+00)
  %9 = fadd double %8, %spec.store.select.i.i.i.i.i
  %10 = getelementptr inbounds nuw i8, ptr %.val, i64 960
  %11 = getelementptr inbounds nuw i8, ptr %.val, i64 224
  %12 = getelementptr inbounds nuw i8, ptr %.val, i64 8
  %13 = load i32, ptr %12, align 8, !tbaa !352
  %14 = icmp eq i32 %13, 2
  %spec.store.select.i15.i.i.i.i = select i1 %14, double -4.000000e+00, double 0.000000e+00
  %15 = tail call noundef double @_ZN3igl29mapping_energy_with_jacobiansERKN5Eigen6MatrixIdLin1ELin1ELi0ELin1ELin1EEERKNS1_IdLin1ELi1ELi0ELin1ELi1EEENS_17MappingEnergyTypeEd(ptr noundef nonnull align 8 dereferenceable(24) %10, ptr noundef nonnull align 8 dereferenceable(16) %11, i32 noundef %13, double noundef 0.000000e+00)
  %16 = fadd double %15, %spec.store.select.i15.i.i.i.i
  %17 = fadd double %9, %16
  %18 = tail call noundef double @_ZN3igl8triangle4scaf30compute_soft_constraint_energyERKNS0_8SCAFDataE(ptr noundef nonnull align 8 dereferenceable(1032) %.val)
  %19 = fadd double %18, %17
  ret double %19
}